; Function Attrs: nounwind uwtable
define void @Ivy_FraigSimulateOne(ptr noundef captures(none) %0) local_unnamed_addr #2 {
  %2 = alloca %struct.timespec, align 8
  %3 = alloca %struct.timespec, align 8
  call void @llvm.lifetime.start.p0(i64 16, ptr nonnull %3) #26
  %4 = call i32 @clock_gettime(i32 noundef 1, ptr noundef nonnull %3) #26
  %5 = icmp slt i32 %4, 0
  br i1 %5, label %Abc_Clock.exit, label %6

6:                                                ; preds = %1
  %7 = load i64, ptr %3, align 8, !tbaa !35
  %.neg16 = mul i64 %7, -1000000
  %8 = getelementptr inbounds nuw i8, ptr %3, i64 8
  %9 = load i64, ptr %8, align 8, !tbaa !37
  %.neg = sdiv i64 %9, -1000
  %.neg17 = add i64 %.neg, %.neg16
  br label %Abc_Clock.exit

Abc_Clock.exit:                                   ; preds = %1, %6
  %.0.i.neg = phi i64 [ %.neg17, %6 ], [ 1, %1 ]
  call void @llvm.lifetime.end.p0(i64 16, ptr nonnull %3) #26
  %10 = getelementptr inbounds nuw i8, ptr %0, i64 24
  %11 = load ptr, ptr %10, align 8, !tbaa !86
  %12 = getelementptr inbounds nuw i8, ptr %11, i64 24
  %13 = load ptr, ptr %12, align 8, !tbaa !89
  %14 = getelementptr i8, ptr %13, i64 4
  %.val18 = load i32, ptr %14, align 4, !tbaa !47
  %15 = icmp sgt i32 %.val18, 0
  br i1 %15, label %.lr.ph, label %.critedge

.lr.ph:                                           ; preds = %Abc_Clock.exit, %27
  %16 = phi ptr [ %28, %27 ], [ %11, %Abc_Clock.exit ]
  %indvars.iv = phi i64 [ %indvars.iv.next, %27 ], [ 0, %Abc_Clock.exit ]
  %17 = phi ptr [ %30, %27 ], [ %13, %Abc_Clock.exit ]
  %18 = getelementptr i8, ptr %17, i64 8
  %.val12 = load ptr, ptr %18, align 8, !tbaa !49
  %19 = getelementptr inbounds nuw ptr, ptr %.val12, i64 %indvars.iv
  %20 = load ptr, ptr %19, align 8, !tbaa !51
  %21 = icmp eq ptr %20, null
  br i1 %21, label %27, label %22

22:                                               ; preds = %.lr.ph
  %23 = getelementptr i8, ptr %20, i64 8
  %.val13 = load i32, ptr %23, align 8
  %24 = and i32 %.val13, 15
  %25 = add nsw i32 %24, -7
  %narrow.i = icmp ult i32 %25, -2
  br i1 %narrow.i, label %27, label %26

26:                                               ; preds = %22
  call void @Ivy_NodeSimulate(ptr noundef nonnull %0, ptr noundef nonnull %20)
  %.pre = load ptr, ptr %10, align 8, !tbaa !86
  br label %27

27:                                               ; preds = %.lr.ph, %22, %26
  %28 = phi ptr [ %16, %.lr.ph ], [ %16, %22 ], [ %.pre, %26 ]
  %indvars.iv.next = add nuw nsw i64 %indvars.iv, 1
  %29 = getelementptr inbounds nuw i8, ptr %28, i64 24
  %30 = load ptr, ptr %29, align 8, !tbaa !89
  %31 = getelementptr i8, ptr %30, i64 4
  %.val = load i32, ptr %31, align 4, !tbaa !47
  %32 = sext i32 %.val to i64
  %33 = icmp slt i64 %indvars.iv.next, %32
  br i1 %33, label %.lr.ph, label %.critedge, !llvm.loop !177

.critedge:                                        ; preds = %27, %Abc_Clock.exit
  call void @llvm.lifetime.start.p0(i64 16, ptr nonnull %2) #26
  %34 = call i32 @clock_gettime(i32 noundef 1, ptr noundef nonnull %2) #26
  %35 = icmp slt i32 %34, 0
  br i1 %35, label %Abc_Clock.exit15, label %36

36:                                               ; preds = %.critedge
  %37 = load i64, ptr %2, align 8, !tbaa !35
  %38 = mul nsw i64 %37, 1000000
  %39 = getelementptr inbounds nuw i8, ptr %2, i64 8
  %40 = load i64, ptr %39, align 8, !tbaa !37
  %41 = sdiv i64 %40, 1000
  %42 = add nsw i64 %41, %38
  br label %Abc_Clock.exit15

Abc_Clock.exit15:                                 ; preds = %.critedge, %36
  %.0.i14 = phi i64 [ %42, %36 ], [ -1, %.critedge ]
  call void @llvm.lifetime.end.p0(i64 16, ptr nonnull %2) #26
  %43 = add i64 %.0.i14, %.0.i.neg
  %44 = getelementptr inbounds nuw i8, ptr %0, i64 232
  %45 = load i64, ptr %44, align 8, !tbaa !151
  %46 = add nsw i64 %43, %45
  store i64 %46, ptr %44, align 8, !tbaa !151
  %47 = getelementptr inbounds nuw i8, ptr %0, i64 176
  %48 = load i32, ptr %47, align 8, !tbaa !147
  %49 = add nsw i32 %48, 1
  store i32 %49, ptr %47, align 8, !tbaa !147
  ret void
}